target datalayout = "e-m:e-p270:32:32-p271:32:32-p272:64:64-i64:64-i128:128-f80:128-n8:16:32:64-S128"
target triple = "x86_64-pc-linux-gnu"

%struct.AVCodecTag = type { i32, i32 }
%struct.AVFormatContext = type { ptr, ptr, ptr, ptr, ptr, i32, i32, ptr, i32, ptr, i32, ptr, ptr, i64, i64, i64, i32, i32, i32, i64, i64, ptr, i32, i32, ptr, i32, i32, i32, i32, ptr, i64, i32, i32, %struct.AVIOInterruptCB, i32, i32, i32, i32, i64, i32, i32, i32, i32, i32, i32, i32, i32, i32, i32, i32, i32, i64, i32, i32, i32, i32, i32, ptr, ptr, ptr, ptr, i32, ptr, ptr, ptr, ptr, i32, ptr, ptr, i64, ptr, ptr, ptr, i64 }
%struct.AVIOInterruptCB = type { ptr, ptr }
%struct.ogg = type { ptr, i32, i32, i32, i64, ptr }
%struct.ogg_stream = type { ptr, i32, i32, i32, i32, i32, i32, i32, i64, i64, i64, i64, i64, i64, i32, ptr, i32, i32, i32, [255 x i8], i32, i32, i32, i32, i32, i32, i32, i32, ptr, i64, ptr }
%struct.AVStream = type { ptr, i32, i32, ptr, ptr, %struct.AVRational, i64, i64, i64, i32, i32, %struct.AVRational, ptr, %struct.AVRational, %struct.AVPacket, i32, %struct.AVRational, i32 }
%struct.AVPacket = type { ptr, i64, i64, ptr, i32, i32, i32, ptr, i32, i64, i64, ptr, ptr, %struct.AVRational }
%struct.AVRational = type { i32, i32 }
%struct.AVCodecParameters = type { i32, i32, i32, ptr, i32, ptr, i32, i32, i64, i32, i32, i32, i32, i32, i32, %struct.AVRational, %struct.AVRational, i32, i32, i32, i32, i32, i32, i32, %struct.AVChannelLayout, i32, i32, i32, i32, i32, i32 }
%struct.AVChannelLayout = type { i32, i32, %union.anon, ptr }
%union.anon = type { i64 }

@ff_codec_bmp_tags = external constant [0 x %struct.AVCodecTag], align 4
@ff_codec_wav_tags = external constant [0 x %struct.AVCodecTag], align 4

; Function Attrs: nounwind uwtable
define internal i32 @ogm_dshow_header(ptr noundef %0, i32 noundef %1) #0 {
  %3 = alloca i32, align 4
  %4 = alloca ptr, align 8
  %5 = alloca i32, align 4
  %6 = alloca ptr, align 8
  %7 = alloca ptr, align 8
  %8 = alloca ptr, align 8
  %9 = alloca ptr, align 8
  %10 = alloca i32, align 4
  %11 = alloca i32, align 4
  store ptr %0, ptr %4, align 8, !tbaa !4
  store i32 %1, ptr %5, align 4, !tbaa !9
  call void @llvm.lifetime.start.p0(i64 8, ptr %6) #8
  %12 = load ptr, ptr %4, align 8, !tbaa !4
  %13 = getelementptr inbounds nuw %struct.AVFormatContext, ptr %12, i32 0, i32 3
  %14 = load ptr, ptr %13, align 8, !tbaa !11
  store ptr %14, ptr %6, align 8, !tbaa !27
  call void @llvm.lifetime.start.p0(i64 8, ptr %7) #8
  %15 = load ptr, ptr %6, align 8, !tbaa !27
  %16 = getelementptr inbounds nuw %struct.ogg, ptr %15, i32 0, i32 0
  %17 = load ptr, ptr %16, align 8, !tbaa !29
  %18 = load i32, ptr %5, align 4, !tbaa !9
  %19 = sext i32 %18 to i64
  %20 = getelementptr inbounds %struct.ogg_stream, ptr %17, i64 %19
  store ptr %20, ptr %7, align 8, !tbaa !33
  call void @llvm.lifetime.start.p0(i64 8, ptr %8) #8
  %21 = load ptr, ptr %4, align 8, !tbaa !4
  %22 = getelementptr inbounds nuw %struct.AVFormatContext, ptr %21, i32 0, i32 7
  %23 = load ptr, ptr %22, align 8, !tbaa !34
  %24 = load i32, ptr %5, align 4, !tbaa !9
  %25 = sext i32 %24 to i64
  %26 = getelementptr inbounds ptr, ptr %23, i64 %25
  %27 = load ptr, ptr %26, align 8, !tbaa !35
  store ptr %27, ptr %8, align 8, !tbaa !35
  call void @llvm.lifetime.start.p0(i64 8, ptr %9) #8
  %28 = load ptr, ptr %7, align 8, !tbaa !33
  %29 = getelementptr inbounds nuw %struct.ogg_stream, ptr %28, i32 0, i32 0
  %30 = load ptr, ptr %29, align 8, !tbaa !39
  %31 = load ptr, ptr %7, align 8, !tbaa !33
  %32 = getelementptr inbounds nuw %struct.ogg_stream, ptr %31, i32 0, i32 3
  %33 = load i32, ptr %32, align 8, !tbaa !42
  %34 = zext i32 %33 to i64
  %35 = getelementptr inbounds nuw i8, ptr %30, i64 %34
  store ptr %35, ptr %9, align 8, !tbaa !80
  call void @llvm.lifetime.start.p0(i64 4, ptr %10) #8
  %36 = load ptr, ptr %9, align 8, !tbaa !80
  %37 = load i8, ptr %36, align 1, !tbaa !68
  %38 = zext i8 %37 to i32
  %39 = and i32 %38, 1
  %40 = icmp ne i32 %39, 0
  br i1 %40, label %42, label %41

41:                                               ; preds = %2
  store i32 0, ptr %3, align 4
  store i32 1, ptr %11, align 4
  br label %148

42:                                               ; preds = %2
  %43 = load ptr, ptr %9, align 8, !tbaa !80
  %44 = load i8, ptr %43, align 1, !tbaa !68
  %45 = zext i8 %44 to i32
  %46 = icmp ne i32 %45, 1
  br i1 %46, label %47, label %48

47:                                               ; preds = %42
  store i32 1, ptr %3, align 4
  store i32 1, ptr %11, align 4
  br label %148

48:                                               ; preds = %42
  %49 = load ptr, ptr %7, align 8, !tbaa !33
  %50 = getelementptr inbounds nuw %struct.ogg_stream, ptr %49, i32 0, i32 4
  %51 = load i32, ptr %50, align 4, !tbaa !43
  %52 = icmp ult i32 %51, 100
  br i1 %52, label %53, label %54

53:                                               ; preds = %48
  store i32 -1094995529, ptr %3, align 4
  store i32 1, ptr %11, align 4
  br label %148

54:                                               ; preds = %48
  %55 = load ptr, ptr %9, align 8, !tbaa !80
  %56 = getelementptr inbounds i8, ptr %55, i64 96
  %57 = load i32, ptr %56, align 1, !tbaa !68
  store i32 %57, ptr %10, align 4, !tbaa !9
  %58 = load i32, ptr %10, align 4, !tbaa !9
  %59 = icmp eq i32 %58, 89694080
  br i1 %59, label %60, label %98

60:                                               ; preds = %54
  %61 = load ptr, ptr %7, align 8, !tbaa !33
  %62 = getelementptr inbounds nuw %struct.ogg_stream, ptr %61, i32 0, i32 4
  %63 = load i32, ptr %62, align 4, !tbaa !43
  %64 = icmp ult i32 %63, 184
  br i1 %64, label %65, label %66

65:                                               ; preds = %60
  store i32 -1094995529, ptr %3, align 4
  store i32 1, ptr %11, align 4
  br label %148

66:                                               ; preds = %60
  %67 = load ptr, ptr %8, align 8, !tbaa !35
  %68 = getelementptr inbounds nuw %struct.AVStream, ptr %67, i32 0, i32 3
  %69 = load ptr, ptr %68, align 8, !tbaa !44
  %70 = getelementptr inbounds nuw %struct.AVCodecParameters, ptr %69, i32 0, i32 0
  store i32 0, ptr %70, align 8, !tbaa !51
  %71 = load ptr, ptr %9, align 8, !tbaa !80
  %72 = getelementptr inbounds i8, ptr %71, i64 68
  %73 = load i32, ptr %72, align 1, !tbaa !68
  %74 = call i32 @ff_codec_get_id(ptr noundef @ff_codec_bmp_tags, i32 noundef %73)
  %75 = load ptr, ptr %8, align 8, !tbaa !35
  %76 = getelementptr inbounds nuw %struct.AVStream, ptr %75, i32 0, i32 3
  %77 = load ptr, ptr %76, align 8, !tbaa !44
  %78 = getelementptr inbounds nuw %struct.AVCodecParameters, ptr %77, i32 0, i32 1
  store i32 %74, ptr %78, align 4, !tbaa !54
  %79 = load ptr, ptr %8, align 8, !tbaa !35
  %80 = load ptr, ptr %9, align 8, !tbaa !80
  %81 = getelementptr inbounds i8, ptr %80, i64 164
  %82 = load i64, ptr %81, align 1, !tbaa !68
  %83 = trunc i64 %82 to i32
  call void @avpriv_set_pts_info(ptr noundef %79, i32 noundef 64, i32 noundef %83, i32 noundef 10000000)
  %84 = load ptr, ptr %9, align 8, !tbaa !80
  %85 = getelementptr inbounds i8, ptr %84, i64 176
  %86 = load i32, ptr %85, align 1, !tbaa !68
  %87 = load ptr, ptr %8, align 8, !tbaa !35
  %88 = getelementptr inbounds nuw %struct.AVStream, ptr %87, i32 0, i32 3
  %89 = load ptr, ptr %88, align 8, !tbaa !44
  %90 = getelementptr inbounds nuw %struct.AVCodecParameters, ptr %89, i32 0, i32 13
  store i32 %86, ptr %90, align 8, !tbaa !70
  %91 = load ptr, ptr %9, align 8, !tbaa !80
  %92 = getelementptr inbounds i8, ptr %91, i64 180
  %93 = load i32, ptr %92, align 1, !tbaa !68
  %94 = load ptr, ptr %8, align 8, !tbaa !35
  %95 = getelementptr inbounds nuw %struct.AVStream, ptr %94, i32 0, i32 3
  %96 = load ptr, ptr %95, align 8, !tbaa !44
  %97 = getelementptr inbounds nuw %struct.AVCodecParameters, ptr %96, i32 0, i32 14
  store i32 %93, ptr %97, align 4, !tbaa !71
  br label %147

98:                                               ; preds = %54
  %99 = load i32, ptr %10, align 4, !tbaa !9
  %100 = icmp eq i32 %99, 89694081
  br i1 %100, label %101, label %146

101:                                              ; preds = %98
  %102 = load ptr, ptr %7, align 8, !tbaa !33
  %103 = getelementptr inbounds nuw %struct.ogg_stream, ptr %102, i32 0, i32 4
  %104 = load i32, ptr %103, align 4, !tbaa !43
  %105 = icmp ult i32 %104, 136
  br i1 %105, label %106, label %107

106:                                              ; preds = %101
  store i32 -1094995529, ptr %3, align 4
  store i32 1, ptr %11, align 4
  br label %148

107:                                              ; preds = %101
  %108 = load ptr, ptr %8, align 8, !tbaa !35
  %109 = getelementptr inbounds nuw %struct.AVStream, ptr %108, i32 0, i32 3
  %110 = load ptr, ptr %109, align 8, !tbaa !44
  %111 = getelementptr inbounds nuw %struct.AVCodecParameters, ptr %110, i32 0, i32 0
  store i32 1, ptr %111, align 8, !tbaa !51
  %112 = load ptr, ptr %9, align 8, !tbaa !80
  %113 = getelementptr inbounds i8, ptr %112, i64 124
  %114 = load i16, ptr %113, align 1, !tbaa !68
  %115 = zext i16 %114 to i32
  %116 = call i32 @ff_codec_get_id(ptr noundef @ff_codec_wav_tags, i32 noundef %115)
  %117 = load ptr, ptr %8, align 8, !tbaa !35
  %118 = getelementptr inbounds nuw %struct.AVStream, ptr %117, i32 0, i32 3
  %119 = load ptr, ptr %118, align 8, !tbaa !44
  %120 = getelementptr inbounds nuw %struct.AVCodecParameters, ptr %119, i32 0, i32 1
  store i32 %116, ptr %120, align 4, !tbaa !54
  %121 = load ptr, ptr %9, align 8, !tbaa !80
  %122 = getelementptr inbounds i8, ptr %121, i64 126
  %123 = load i16, ptr %122, align 1, !tbaa !68
  %124 = zext i16 %123 to i32
  %125 = load ptr, ptr %8, align 8, !tbaa !35
  %126 = getelementptr inbounds nuw %struct.AVStream, ptr %125, i32 0, i32 3
  %127 = load ptr, ptr %126, align 8, !tbaa !44
  %128 = getelementptr inbounds nuw %struct.AVCodecParameters, ptr %127, i32 0, i32 24
  %129 = getelementptr inbounds nuw %struct.AVChannelLayout, ptr %128, i32 0, i32 1
  store i32 %124, ptr %129, align 4, !tbaa !72
  %130 = load ptr, ptr %9, align 8, !tbaa !80
  %131 = getelementptr inbounds i8, ptr %130, i64 128
  %132 = load i32, ptr %131, align 1, !tbaa !68
  %133 = load ptr, ptr %8, align 8, !tbaa !35
  %134 = getelementptr inbounds nuw %struct.AVStream, ptr %133, i32 0, i32 3
  %135 = load ptr, ptr %134, align 8, !tbaa !44
  %136 = getelementptr inbounds nuw %struct.AVCodecParameters, ptr %135, i32 0, i32 25
  store i32 %132, ptr %136, align 8, !tbaa !74
  %137 = load ptr, ptr %9, align 8, !tbaa !80
  %138 = getelementptr inbounds i8, ptr %137, i64 132
  %139 = load i32, ptr %138, align 1, !tbaa !68
  %140 = mul i32 %139, 8
  %141 = zext i32 %140 to i64
  %142 = load ptr, ptr %8, align 8, !tbaa !35
  %143 = getelementptr inbounds nuw %struct.AVStream, ptr %142, i32 0, i32 3
  %144 = load ptr, ptr %143, align 8, !tbaa !44
  %145 = getelementptr inbounds nuw %struct.AVCodecParameters, ptr %144, i32 0, i32 8
  store i64 %141, ptr %145, align 8, !tbaa !73
  br label %146

146:                                              ; preds = %107, %98
  br label %147

147:                                              ; preds = %146, %66
  store i32 1, ptr %3, align 4
  store i32 1, ptr %11, align 4
  br label %148

148:                                              ; preds = %147, %106, %65, %53, %47, %41
  call void @llvm.lifetime.end.p0(i64 4, ptr %10) #8
  call void @llvm.lifetime.end.p0(i64 8, ptr %9) #8
  call void @llvm.lifetime.end.p0(i64 8, ptr %8) #8
  call void @llvm.lifetime.end.p0(i64 8, ptr %7) #8
  call void @llvm.lifetime.end.p0(i64 8, ptr %6) #8
  %149 = load i32, ptr %3, align 4
  ret i32 %149
}