; Function Attrs: nounwind uwtable
define internal range(i32 -1094995529, 2) i32 @ogm_dshow_header(ptr noundef readonly captures(none) %0, i32 noundef %1) #0 {
  %3 = getelementptr inbounds nuw i8, ptr %0, i64 24
  %4 = load ptr, ptr %3, align 8, !tbaa !4
  %5 = load ptr, ptr %4, align 8, !tbaa !24
  %6 = sext i32 %1 to i64
  %7 = getelementptr inbounds %struct.ogg_stream, ptr %5, i64 %6
  %8 = getelementptr inbounds nuw i8, ptr %0, i64 48
  %9 = load ptr, ptr %8, align 8, !tbaa !28
  %10 = getelementptr inbounds ptr, ptr %9, i64 %6
  %11 = load ptr, ptr %10, align 8, !tbaa !29
  %12 = load ptr, ptr %7, align 8, !tbaa !31
  %13 = getelementptr inbounds nuw i8, ptr %7, i64 16
  %14 = load i32, ptr %13, align 8, !tbaa !34
  %15 = zext i32 %14 to i64
  %16 = getelementptr inbounds nuw i8, ptr %12, i64 %15
  %17 = load i8, ptr %16, align 1, !tbaa !36
  %18 = and i8 %17, 1
  %.not = icmp eq i8 %18, 0
  br i1 %.not, label %70, label %19

19:                                               ; preds = %2
  %.not35 = icmp eq i8 %17, 1
  br i1 %.not35, label %20, label %70

20:                                               ; preds = %19
  %21 = getelementptr inbounds nuw i8, ptr %7, i64 20
  %22 = load i32, ptr %21, align 4, !tbaa !35
  %23 = icmp ult i32 %22, 100
  br i1 %23, label %70, label %24

24:                                               ; preds = %20
  %25 = getelementptr inbounds nuw i8, ptr %16, i64 96
  %26 = load i32, ptr %25, align 1, !tbaa !36
  switch i32 %26, label %70 [
    i32 89694080, label %27
    i32 89694081, label %47
  ]

27:                                               ; preds = %24
  %28 = icmp ult i32 %22, 184
  br i1 %28, label %70, label %29

29:                                               ; preds = %27
  %30 = getelementptr inbounds nuw i8, ptr %11, i64 16
  %31 = load ptr, ptr %30, align 8, !tbaa !37
  store i32 0, ptr %31, align 8, !tbaa !44
  %32 = getelementptr inbounds nuw i8, ptr %16, i64 68
  %33 = load i32, ptr %32, align 1, !tbaa !36
  %34 = tail call i32 @ff_codec_get_id(ptr noundef nonnull @ff_codec_bmp_tags, i32 noundef %33) #8
  %35 = load ptr, ptr %30, align 8, !tbaa !37
  %36 = getelementptr inbounds nuw i8, ptr %35, i64 4
  store i32 %34, ptr %36, align 4, !tbaa !47
  %37 = getelementptr inbounds nuw i8, ptr %16, i64 164
  %38 = load i64, ptr %37, align 1, !tbaa !36
  %39 = trunc i64 %38 to i32
  tail call void @avpriv_set_pts_info(ptr noundef %11, i32 noundef 64, i32 noundef %39, i32 noundef 10000000) #8
  %40 = getelementptr inbounds nuw i8, ptr %16, i64 176
  %41 = load i32, ptr %40, align 1, !tbaa !36
  %42 = load ptr, ptr %30, align 8, !tbaa !37
  %43 = getelementptr inbounds nuw i8, ptr %42, i64 72
  store i32 %41, ptr %43, align 8, !tbaa !62
  %44 = getelementptr inbounds nuw i8, ptr %16, i64 180
  %45 = load i32, ptr %44, align 1, !tbaa !36
  %46 = getelementptr inbounds nuw i8, ptr %42, i64 76
  store i32 %45, ptr %46, align 4, !tbaa !63
  br label %70

47:                                               ; preds = %24
  %48 = icmp ult i32 %22, 136
  br i1 %48, label %70, label %49

49:                                               ; preds = %47
  %50 = getelementptr inbounds nuw i8, ptr %11, i64 16
  %51 = load ptr, ptr %50, align 8, !tbaa !37
  store i32 1, ptr %51, align 8, !tbaa !44
  %52 = getelementptr inbounds nuw i8, ptr %16, i64 124
  %53 = load i16, ptr %52, align 1, !tbaa !36
  %54 = zext i16 %53 to i32
  %55 = tail call i32 @ff_codec_get_id(ptr noundef nonnull @ff_codec_wav_tags, i32 noundef %54) #8
  %56 = load ptr, ptr %50, align 8, !tbaa !37
  %57 = getelementptr inbounds nuw i8, ptr %56, i64 4
  store i32 %55, ptr %57, align 4, !tbaa !47
  %58 = getelementptr inbounds nuw i8, ptr %16, i64 126
  %59 = load i16, ptr %58, align 1, !tbaa !36
  %60 = zext i16 %59 to i32
  %61 = getelementptr inbounds nuw i8, ptr %56, i64 132
  store i32 %60, ptr %61, align 4, !tbaa !64
  %62 = getelementptr inbounds nuw i8, ptr %16, i64 128
  %63 = load i32, ptr %62, align 1, !tbaa !36
  %64 = getelementptr inbounds nuw i8, ptr %56, i64 152
  store i32 %63, ptr %64, align 8, !tbaa !66
  %65 = getelementptr inbounds nuw i8, ptr %16, i64 132
  %66 = load i32, ptr %65, align 1, !tbaa !36
  %67 = shl i32 %66, 3
  %68 = zext i32 %67 to i64
  %69 = getelementptr inbounds nuw i8, ptr %56, i64 48
  store i64 %68, ptr %69, align 8, !tbaa !65
  br label %70

70:                                               ; preds = %29, %49, %24, %47, %27, %20, %19, %2
  %.0 = phi i32 [ 0, %2 ], [ 1, %19 ], [ -1094995529, %20 ], [ -1094995529, %27 ], [ -1094995529, %47 ], [ 1, %24 ], [ 1, %49 ], [ 1, %29 ]
  ret i32 %.0
}